target datalayout = "e-m:e-p270:32:32-p271:32:32-p272:64:64-i64:64-i128:128-f80:128-n8:16:32:64-S128"
target triple = "x86_64-unknown-linux-gnu"

%struct.E1000State_st = type { %struct.PCIDevice, ptr, %struct.NICConf, %struct.MemoryRegion, %struct.MemoryRegion, [32768 x i32], [32 x i16], [64 x i16], i32, i32, %struct.e1000_tx, %struct.anon, ptr, ptr, i8, i8, i32, ptr, i32, i8, i8, %struct.e1000x_txd_props }
%struct.PCIDevice = type { %struct.DeviceState, i8, i8, ptr, ptr, ptr, ptr, ptr, i32, %struct.PCIReqIDCache, [64 x i8], [7 x %struct.PCIIORegion], %struct.AddressSpace, %struct.MemoryRegion, %struct.MemoryRegion, ptr, ptr, [3 x ptr], i8, i8, i32, i8, i32, ptr, ptr, ptr, ptr, ptr, ptr, %struct.MemoryRegion, %struct.MemoryRegion, %struct.MemoryRegion, ptr, i8, i32, i8, %struct.PCIExpressDevice, ptr, ptr, i32, i8, %struct.MemoryRegion, i32, ptr, ptr, ptr, ptr, ptr, i32 }
%struct.DeviceState = type { %struct.Object, ptr, ptr, i8, i8, i64, ptr, i32, i8, ptr, %struct.NamedGPIOListHead, %struct.NamedClockListHead, %struct.BusStateHead, i32, i32, i32, %struct.ResettableState, ptr, %struct.MemReentrancyGuard }
%struct.Object = type { ptr, ptr, ptr, i32, ptr }
%struct.NamedGPIOListHead = type { ptr }
%struct.NamedClockListHead = type { ptr }
%struct.BusStateHead = type { ptr }
%struct.ResettableState = type { i32, i8, i8 }
%struct.MemReentrancyGuard = type { i8 }
%struct.PCIReqIDCache = type { ptr, i32 }
%struct.PCIIORegion = type { i64, i64, i8, ptr, ptr }
%struct.AddressSpace = type { %struct.rcu_head, ptr, ptr, ptr, i32, i32, ptr, %union.anon, %union.anon.0 }
%struct.rcu_head = type { ptr, ptr }
%union.anon = type { %struct.QTailQLink }
%struct.QTailQLink = type { ptr, ptr }
%union.anon.0 = type { %struct.QTailQLink }
%struct.PCIExpressDevice = type { i8, i8, i8, i16, %struct.PCIEAERLog, i16, i16, i16, %struct.PCIESriovPF, %struct.PCIESriovVF }
%struct.PCIEAERLog = type { i16, i16, ptr }
%struct.PCIESriovPF = type { i16, [7 x i8], ptr, ptr }
%struct.PCIESriovVF = type { ptr, i16 }
%struct.NICConf = type { %struct.MACAddr, %struct.NICPeers, i32 }
%struct.MACAddr = type { [6 x i8] }
%struct.NICPeers = type { [1024 x ptr], i32 }
%struct.MemoryRegion = type { %struct.Object, i8, i8, i8, i8, i8, i8, i8, i8, i8, i8, ptr, ptr, ptr, ptr, ptr, ptr, i32, i128, i64, ptr, i64, i8, i8, i8, i8, i8, ptr, i64, i32, %union.anon.1, %union.anon.2, %union.anon.3, ptr, i32, ptr, ptr, i8 }
%union.anon.1 = type { %struct.QTailQLink }
%union.anon.2 = type { %struct.QTailQLink }
%union.anon.3 = type { %struct.QTailQLink }
%struct.e1000_tx = type { [256 x i8], [4 x i8], [4 x i8], [65536 x i8], i16, i8, i8, i8, %struct.e1000x_txd_props, %struct.e1000x_txd_props, i16, i8 }
%struct.anon = type { i32, i16, i16, i16, i32 }
%struct.e1000x_txd_props = type { i8, i8, i16, i8, i8, i16, i32, i8, i16, i8, i8, i8 }

@phyreg_writeops = internal global [1 x ptr] [ptr @set_phy_ctrl], align 8
@phy_regcap = internal constant <{ [22 x i8], [10 x i8] }> <{ [22 x i8] c"\03\01\01\01\03\01\01\00\00\03\01\00\00\00\00\00\03\01\00\00\03\01", [10 x i8] zeroinitializer }>, align 16

; Function Attrs: nounwind sspstrong uwtable
define internal void @set_ics(ptr noundef %s, i32 noundef %index, i32 noundef %val) #0 {
entry:
  %s.addr = alloca ptr, align 8
  %index.addr = alloca i32, align 4
  %val.addr = alloca i32, align 4
  store ptr %s, ptr %s.addr, align 8
  store i32 %index, ptr %index.addr, align 4
  store i32 %val, ptr %val.addr, align 4
  br label %do.body

do.body:                                          ; preds = %entry
  br label %do.end

do.end:                                           ; preds = %do.body
  %0 = load ptr, ptr %s.addr, align 8
  %1 = load i32, ptr %val.addr, align 4
  %2 = load ptr, ptr %s.addr, align 8
  %mac_reg = getelementptr inbounds %struct.E1000State_st, ptr %2, i32 0, i32 5
  %arrayidx = getelementptr [32768 x i32], ptr %mac_reg, i64 0, i64 48
  %3 = load i32, ptr %arrayidx, align 16
  %or = or i32 %1, %3
  call void @set_interrupt_cause(ptr noundef %0, i32 noundef 0, i32 noundef %or)
  ret void
}

; Function Attrs: nounwind sspstrong uwtable
define internal void @set_mdic(ptr noundef %s, i32 noundef %index, i32 noundef %val) #0 {
entry:
  %s.addr = alloca ptr, align 8
  %index.addr = alloca i32, align 4
  %val.addr = alloca i32, align 4
  %data = alloca i32, align 4
  %addr = alloca i32, align 4
  store ptr %s, ptr %s.addr, align 8
  store i32 %index, ptr %index.addr, align 4
  store i32 %val, ptr %val.addr, align 4
  %0 = load i32, ptr %val.addr, align 4
  %and = and i32 %0, 65535
  store i32 %and, ptr %data, align 4
  %1 = load i32, ptr %val.addr, align 4
  %and1 = and i32 %1, 2031616
  %shr = lshr i32 %and1, 16
  store i32 %shr, ptr %addr, align 4
  %2 = load i32, ptr %val.addr, align 4
  %and2 = and i32 %2, 65011712
  %shr3 = lshr i32 %and2, 21
  %cmp = icmp ne i32 %shr3, 1
  br i1 %cmp, label %if.then, label %if.else

if.then:                                          ; preds = %entry
  %3 = load ptr, ptr %s.addr, align 8
  %mac_reg = getelementptr inbounds %struct.E1000State_st, ptr %3, i32 0, i32 5
  %arrayidx = getelementptr [32768 x i32], ptr %mac_reg, i64 0, i64 8
  %4 = load i32, ptr %arrayidx, align 16
  %or = or i32 %4, 1073741824
  store i32 %or, ptr %val.addr, align 4
  br label %if.end52

if.else:                                          ; preds = %entry
  %5 = load i32, ptr %val.addr, align 4
  %and4 = and i32 %5, 134217728
  %tobool = icmp ne i32 %and4, 0
  br i1 %tobool, label %if.then5, label %if.else18

if.then5:                                         ; preds = %if.else
  br label %do.body

do.body:                                          ; preds = %if.then5
  br label %do.end

do.end:                                           ; preds = %do.body
  %6 = load i32, ptr %addr, align 4
  %idxprom = zext i32 %6 to i64
  %arrayidx6 = getelementptr [32 x i8], ptr @phy_regcap, i64 0, i64 %idxprom
  %7 = load i8, ptr %arrayidx6, align 1
  %conv = sext i8 %7 to i32
  %and7 = and i32 %conv, 1
  %tobool8 = icmp ne i32 %and7, 0
  br i1 %tobool8, label %if.else13, label %if.then9

if.then9:                                         ; preds = %do.end
  br label %do.body10

do.body10:                                        ; preds = %if.then9
  br label %do.end11

do.end11:                                         ; preds = %do.body10
  %8 = load i32, ptr %val.addr, align 4
  %or12 = or i32 %8, 1073741824
  store i32 %or12, ptr %val.addr, align 4
  br label %if.end

if.else13:                                        ; preds = %do.end
  %9 = load i32, ptr %val.addr, align 4
  %10 = load i32, ptr %data, align 4
  %xor = xor i32 %9, %10
  %11 = load ptr, ptr %s.addr, align 8
  %phy_reg = getelementptr inbounds %struct.E1000State_st, ptr %11, i32 0, i32 6
  %12 = load i32, ptr %addr, align 4
  %idxprom14 = zext i32 %12 to i64
  %arrayidx15 = getelementptr [32 x i16], ptr %phy_reg, i64 0, i64 %idxprom14
  %13 = load i16, ptr %arrayidx15, align 2
  %conv16 = zext i16 %13 to i32
  %or17 = or i32 %xor, %conv16
  store i32 %or17, ptr %val.addr, align 4
  br label %if.end

if.end:                                           ; preds = %if.else13, %do.end11
  br label %if.end51

if.else18:                                        ; preds = %if.else
  %14 = load i32, ptr %val.addr, align 4
  %and19 = and i32 %14, 67108864
  %tobool20 = icmp ne i32 %and19, 0
  br i1 %tobool20, label %if.then21, label %if.end50

if.then21:                                        ; preds = %if.else18
  br label %do.body22

do.body22:                                        ; preds = %if.then21
  br label %do.end23

do.end23:                                         ; preds = %do.body22
  %15 = load i32, ptr %addr, align 4
  %idxprom24 = zext i32 %15 to i64
  %arrayidx25 = getelementptr [32 x i8], ptr @phy_regcap, i64 0, i64 %idxprom24
  %16 = load i8, ptr %arrayidx25, align 1
  %conv26 = sext i8 %16 to i32
  %and27 = and i32 %conv26, 2
  %tobool28 = icmp ne i32 %and27, 0
  br i1 %tobool28, label %if.else33, label %if.then29

if.then29:                                        ; preds = %do.end23
  br label %do.body30

do.body30:                                        ; preds = %if.then29
  br label %do.end31

do.end31:                                         ; preds = %do.body30
  %17 = load i32, ptr %val.addr, align 4
  %or32 = or i32 %17, 1073741824
  store i32 %or32, ptr %val.addr, align 4
  br label %if.end49

if.else33:                                        ; preds = %do.end23
  %18 = load i32, ptr %addr, align 4
  %cmp34 = icmp ult i32 %18, 1
  br i1 %cmp34, label %land.lhs.true, label %if.else43

land.lhs.true:                                    ; preds = %if.else33
  %19 = load i32, ptr %addr, align 4
  %idxprom36 = zext i32 %19 to i64
  %arrayidx37 = getelementptr [1 x ptr], ptr @phyreg_writeops, i64 0, i64 %idxprom36
  %20 = load ptr, ptr %arrayidx37, align 8
  %tobool38 = icmp ne ptr %20, null
  br i1 %tobool38, label %if.then39, label %if.else43

if.then39:                                        ; preds = %land.lhs.true
  %21 = load i32, ptr %addr, align 4
  %idxprom40 = zext i32 %21 to i64
  %arrayidx41 = getelementptr [1 x ptr], ptr @phyreg_writeops, i64 0, i64 %idxprom40
  %22 = load ptr, ptr %arrayidx41, align 8
  %23 = load ptr, ptr %s.addr, align 8
  %24 = load i32, ptr %index.addr, align 4
  %25 = load i32, ptr %data, align 4
  %conv42 = trunc i32 %25 to i16
  call void %22(ptr noundef %23, i32 noundef %24, i16 noundef zeroext %conv42)
  br label %if.end48

if.else43:                                        ; preds = %land.lhs.true, %if.else33
  %26 = load i32, ptr %data, align 4
  %conv44 = trunc i32 %26 to i16
  %27 = load ptr, ptr %s.addr, align 8
  %phy_reg45 = getelementptr inbounds %struct.E1000State_st, ptr %27, i32 0, i32 6
  %28 = load i32, ptr %addr, align 4
  %idxprom46 = zext i32 %28 to i64
  %arrayidx47 = getelementptr [32 x i16], ptr %phy_reg45, i64 0, i64 %idxprom46
  store i16 %conv44, ptr %arrayidx47, align 2
  br label %if.end48

if.end48:                                         ; preds = %if.else43, %if.then39
  br label %if.end49

if.end49:                                         ; preds = %if.end48, %do.end31
  br label %if.end50

if.end50:                                         ; preds = %if.end49, %if.else18
  br label %if.end51

if.end51:                                         ; preds = %if.end50, %if.end
  br label %if.end52

if.end52:                                         ; preds = %if.end51, %if.then
  %29 = load i32, ptr %val.addr, align 4
  %or53 = or i32 %29, 268435456
  %30 = load ptr, ptr %s.addr, align 8
  %mac_reg54 = getelementptr inbounds %struct.E1000State_st, ptr %30, i32 0, i32 5
  %arrayidx55 = getelementptr [32768 x i32], ptr %mac_reg54, i64 0, i64 8
  store i32 %or53, ptr %arrayidx55, align 16
  %31 = load i32, ptr %val.addr, align 4
  %and56 = and i32 %31, 536870912
  %tobool57 = icmp ne i32 %and56, 0
  br i1 %tobool57, label %if.then58, label %if.end59

if.then58:                                        ; preds = %if.end52
  %32 = load ptr, ptr %s.addr, align 8
  call void @set_ics(ptr noundef %32, i32 noundef 0, i32 noundef 512)
  br label %if.end59

if.end59:                                         ; preds = %if.then58, %if.end52
  ret void
}