; Function Attrs: nounwind sspstrong uwtable
define internal void @set_mdic(ptr noundef %s, i32 %index, i32 noundef %val) #0 {
entry:
  %and1 = lshr i32 %val, 16
  %shr = and i32 %and1, 31
  %0 = and i32 %val, 65011712
  %cmp.not = icmp eq i32 %0, 2097152
  br i1 %cmp.not, label %if.else, label %if.then

if.then:                                          ; preds = %entry
  %arrayidx = getelementptr i8, ptr %s, i64 11408
  %1 = load i32, ptr %arrayidx, align 16
  %or = or i32 %1, 1073741824
  br label %if.end52

if.else:                                          ; preds = %entry
  %and4 = and i32 %val, 134217728
  %tobool.not = icmp eq i32 %and4, 0
  br i1 %tobool.not, label %if.else18, label %do.end

do.end:                                           ; preds = %if.else
  %idxprom = zext nneg i32 %shr to i64
  %arrayidx6 = getelementptr [32 x i8], ptr @phy_regcap, i64 0, i64 %idxprom
  %2 = load i8, ptr %arrayidx6, align 1
  %3 = and i8 %2, 1
  %tobool8.not = icmp eq i8 %3, 0
  br i1 %tobool8.not, label %do.end11, label %if.else13

do.end11:                                         ; preds = %do.end
  %or12 = or i32 %val, 1073741824
  br label %if.end52

if.else13:                                        ; preds = %do.end
  %xor = and i32 %val, -62980096
  %phy_reg = getelementptr inbounds nuw i8, ptr %s, i64 142448
  %arrayidx15 = getelementptr [32 x i16], ptr %phy_reg, i64 0, i64 %idxprom
  %4 = load i16, ptr %arrayidx15, align 2
  %conv16 = zext i16 %4 to i32
  %or17 = or disjoint i32 %xor, %conv16
  br label %if.end52

if.else18:                                        ; preds = %if.else
  %and19 = and i32 %val, 67108864
  %tobool20.not = icmp eq i32 %and19, 0
  br i1 %tobool20.not, label %if.end52, label %do.end23

do.end23:                                         ; preds = %if.else18
  %idxprom24 = zext nneg i32 %shr to i64
  %arrayidx25 = getelementptr [32 x i8], ptr @phy_regcap, i64 0, i64 %idxprom24
  %5 = load i8, ptr %arrayidx25, align 1
  %6 = and i8 %5, 2
  %tobool28.not = icmp eq i8 %6, 0
  br i1 %tobool28.not, label %do.end31, label %if.else33

do.end31:                                         ; preds = %do.end23
  %or32 = or i32 %val, 1073741824
  br label %if.end52

if.else33:                                        ; preds = %do.end23
  %cmp34 = icmp eq i32 %shr, 0
  %conv42 = trunc i32 %val to i16
  br i1 %cmp34, label %if.then39, label %if.else43

if.then39:                                        ; preds = %if.else33
  %and.i = and i16 %conv42, 32192
  %phy_reg.i = getelementptr inbounds nuw i8, ptr %s, i64 142448
  store i16 %and.i, ptr %phy_reg.i, align 16
  %7 = and i16 %conv42, 4608
  %or.cond.not.i = icmp eq i16 %7, 4608
  br i1 %or.cond.not.i, label %if.then.i, label %if.end52

if.then.i:                                        ; preds = %if.then39
  %mac_reg.i = getelementptr inbounds nuw i8, ptr %s, i64 11376
  %autoneg_timer.i = getelementptr inbounds nuw i8, ptr %s, i64 208520
  %8 = load ptr, ptr %autoneg_timer.i, align 8
  tail call void @e1000x_restart_autoneg(ptr noundef nonnull %mac_reg.i, ptr noundef nonnull %phy_reg.i, ptr noundef %8) #13
  br label %if.end52

if.else43:                                        ; preds = %if.else33
  %phy_reg45 = getelementptr inbounds nuw i8, ptr %s, i64 142448
  %arrayidx47 = getelementptr [32 x i16], ptr %phy_reg45, i64 0, i64 %idxprom24
  store i16 %conv42, ptr %arrayidx47, align 2
  br label %if.end52

if.end52:                                         ; preds = %if.then.i, %if.then39, %if.else13, %do.end11, %do.end31, %if.else43, %if.else18, %if.then
  %val.addr.0 = phi i32 [ %or, %if.then ], [ %or17, %if.else13 ], [ %or12, %do.end11 ], [ %val, %if.else43 ], [ %or32, %do.end31 ], [ %val, %if.else18 ], [ %val, %if.then39 ], [ %val, %if.then.i ]
  %or53 = or i32 %val.addr.0, 268435456
  %arrayidx55 = getelementptr i8, ptr %s, i64 11408
  store i32 %or53, ptr %arrayidx55, align 16
  %and56 = and i32 %val.addr.0, 536870912
  %tobool57.not = icmp eq i32 %and56, 0
  br i1 %tobool57.not, label %if.end59, label %if.then58

if.then58:                                        ; preds = %if.end52
  %arrayidx.i = getelementptr i8, ptr %s, i64 11568
  %9 = load i32, ptr %arrayidx.i, align 16
  %or.i = or i32 %9, 512
  tail call fastcc void @set_interrupt_cause(ptr noundef nonnull %s, i32 noundef %or.i)
  br label %if.end59

if.end59:                                         ; preds = %if.then58, %if.end52
  ret void
}